target datalayout = "e-m:e-p270:32:32-p271:32:32-p272:64:64-i64:64-i128:128-f80:128-n8:16:32:64-S128"
target triple = "x86_64-pc-linux-gnu"

%struct.dict = type { ptr, [2 x ptr], [2 x i64], i64, i16, [2 x i8], i16, [0 x ptr] }

; Function Attrs: nounwind uwtable
define dso_local i32 @_dictExpand(ptr noundef %0, i64 noundef %1, ptr noundef %2) #0 {
  %4 = alloca i32, align 4
  %5 = alloca ptr, align 8
  %6 = alloca i64, align 8
  %7 = alloca ptr, align 8
  store ptr %0, ptr %5, align 8, !tbaa !18
  store i64 %1, ptr %6, align 8, !tbaa !11
  store ptr %2, ptr %7, align 8, !tbaa !27
  %8 = load ptr, ptr %5, align 8, !tbaa !18
  %9 = getelementptr inbounds nuw %struct.dict, ptr %8, i32 0, i32 3
  %10 = load i64, ptr %9, align 8, !tbaa !11
  %11 = icmp ne i64 %10, -1
  br i1 %11, label %39, label %12

12:                                               ; preds = %3
  %13 = load ptr, ptr %5, align 8, !tbaa !18
  %14 = getelementptr inbounds nuw %struct.dict, ptr %13, i32 0, i32 2
  %15 = getelementptr inbounds [2 x i64], ptr %14, i64 0, i64 0
  %16 = load i64, ptr %15, align 8, !tbaa !11
  %17 = load i64, ptr %6, align 8, !tbaa !11
  %18 = icmp ugt i64 %16, %17
  br i1 %18, label %39, label %19

19:                                               ; preds = %12
  %20 = load ptr, ptr %5, align 8, !tbaa !18
  %21 = getelementptr inbounds nuw %struct.dict, ptr %20, i32 0, i32 5
  %22 = getelementptr inbounds [2 x i8], ptr %21, i64 0, i64 0
  %23 = load i8, ptr %22, align 2, !tbaa !25
  %24 = sext i8 %23 to i32
  %25 = icmp eq i32 %24, -1
  br i1 %25, label %26, label %27

26:                                               ; preds = %19
  br label %35

27:                                               ; preds = %19
  %28 = load ptr, ptr %5, align 8, !tbaa !18
  %29 = getelementptr inbounds nuw %struct.dict, ptr %28, i32 0, i32 5
  %30 = getelementptr inbounds [2 x i8], ptr %29, i64 0, i64 0
  %31 = load i8, ptr %30, align 2, !tbaa !25
  %32 = sext i8 %31 to i32
  %33 = zext i32 %32 to i64
  %34 = shl i64 1, %33
  br label %35

35:                                               ; preds = %27, %26
  %36 = phi i64 [ 0, %26 ], [ %34, %27 ]
  %37 = load i64, ptr %6, align 8, !tbaa !11
  %38 = icmp uge i64 %36, %37
  br i1 %38, label %39, label %40

39:                                               ; preds = %35, %12, %3
  store i32 1, ptr %4, align 4
  br label %45

40:                                               ; preds = %35
  %41 = load ptr, ptr %5, align 8, !tbaa !18
  %42 = load i64, ptr %6, align 8, !tbaa !11
  %43 = load ptr, ptr %7, align 8, !tbaa !27
  %44 = call i32 @_dictResize(ptr noundef %41, i64 noundef %42, ptr noundef %43)
  store i32 %44, ptr %4, align 4
  br label %45

45:                                               ; preds = %40, %39
  %46 = load i32, ptr %4, align 4
  ret i32 %46
}

; Function Attrs: nounwind uwtable
define dso_local i32 @dictTryExpand(ptr noundef %0, i64 noundef %1) #0 {
  %3 = alloca ptr, align 8
  %4 = alloca i64, align 8
  %5 = alloca i32, align 4
  store ptr %0, ptr %3, align 8, !tbaa !18
  store i64 %1, ptr %4, align 8, !tbaa !11
  call void @llvm.lifetime.start.p0(i64 4, ptr %5) #14
  store i32 0, ptr %5, align 4, !tbaa !29
  %6 = load ptr, ptr %3, align 8, !tbaa !18
  %7 = load i64, ptr %4, align 8, !tbaa !11
  %8 = call i32 @_dictExpand(ptr noundef %6, i64 noundef %7, ptr noundef %5)
  %9 = load i32, ptr %5, align 4, !tbaa !29
  %10 = icmp ne i32 %9, 0
  %11 = select i1 %10, i32 1, i32 0
  call void @llvm.lifetime.end.p0(i64 4, ptr %5) #14
  ret i32 %11
}