; Function Attrs: nounwind uwtable
define dso_local range(i32 0, 2) i32 @dictTryExpand(ptr noundef %0, i64 noundef %1) local_unnamed_addr #3 {
  %3 = alloca i32, align 4
  call void @llvm.lifetime.start.p0(i64 4, ptr nonnull %3) #25
  store i32 0, ptr %3, align 4, !tbaa !26
  %4 = getelementptr inbounds nuw i8, ptr %0, i64 40
  %5 = load i64, ptr %4, align 8, !tbaa !14
  %.not.i = icmp eq i64 %5, -1
  br i1 %.not.i, label %6, label %_dictExpand.exit

6:                                                ; preds = %2
  %7 = getelementptr inbounds nuw i8, ptr %0, i64 24
  %8 = load i64, ptr %7, align 8, !tbaa !14
  %9 = icmp ugt i64 %8, %1
  br i1 %9, label %_dictExpand.exit, label %10

10:                                               ; preds = %6
  %11 = getelementptr inbounds nuw i8, ptr %0, i64 50
  %12 = load i8, ptr %11, align 2, !tbaa !13
  %13 = icmp eq i8 %12, -1
  %14 = sext i8 %12 to i64
  %15 = and i64 %14, 4294967295
  %16 = shl nuw i64 1, %15
  %17 = select i1 %13, i64 0, i64 %16
  %.not11.i = icmp ult i64 %17, %1
  br i1 %.not11.i, label %18, label %_dictExpand.exit

18:                                               ; preds = %10
  %19 = call i32 @_dictResize(ptr noundef nonnull %0, i64 noundef %1, ptr noundef nonnull %3)
  %.pre = load i32, ptr %3, align 4, !tbaa !26
  %20 = icmp ne i32 %.pre, 0
  %21 = zext i1 %20 to i32
  br label %_dictExpand.exit

_dictExpand.exit:                                 ; preds = %2, %6, %10, %18
  %.not = phi i32 [ 0, %2 ], [ 0, %6 ], [ 0, %10 ], [ %21, %18 ]
  call void @llvm.lifetime.end.p0(i64 4, ptr nonnull %3) #25
  ret i32 %.not
}